; Function Attrs: mustprogress nofree norecurse nosync nounwind willreturn memory(argmem: read) uwtable
define noundef i32 @_ZNK6icu_7710Normalizer8getIndexEv(ptr noundef nonnull readonly align 8 captures(none) dereferenceable(116) %0) local_unnamed_addr #8 align 2 {
  %2 = getelementptr inbounds nuw i8, ptr %0, i64 112
  %3 = load i32, ptr %2, align 8, !tbaa !23
  %4 = getelementptr inbounds nuw i8, ptr %0, i64 56
  %5 = load i16, ptr %4, align 8, !tbaa !22
  %6 = icmp slt i16 %5, 0
  %7 = ashr i16 %5, 5
  %8 = sext i16 %7 to i32
  %9 = getelementptr inbounds nuw i8, ptr %0, i64 60
  %10 = load i32, ptr %9, align 4
  %11 = select i1 %6, i32 %10, i32 %8
  %12 = icmp slt i32 %3, %11
  %.0.in.v = select i1 %12, i64 40, i64 44
  %.0.in = getelementptr inbounds nuw i8, ptr %0, i64 %.0.in.v
  %.0 = load i32, ptr %.0.in, align 4, !tbaa !39
  ret i32 %.0
}